# SymbolsHelper-Confirmed: 4.95.0 amd64
libKF5Declarative.so.5 libkf5declarative5 #MINVER#
 _ZN12KDeclarative10initializeEv@Base 4.95.0
 _ZN12KDeclarative13setupBindingsEv@Base 4.95.0
 _ZN12KDeclarative15runtimePlatformEv@Base 4.95.0
 _ZN12KDeclarative16componentsTargetEv@Base 4.95.0
 _ZN12KDeclarative18setupQmlJsDebuggerEv@Base 4.95.0
 _ZN12KDeclarative20setDeclarativeEngineEP10QQmlEngine@Base 4.95.0
 _ZN12KDeclarative23defaultComponentsTargetEv@Base 4.95.0
 _ZN12KDeclarativeC1Ev@Base 4.95.0
 _ZN12KDeclarativeC2Ev@Base 4.95.0
 _ZN12KDeclarativeD1Ev@Base 4.95.0
 _ZN12KDeclarativeD2Ev@Base 4.95.0
 _ZN17ConfigPropertyMap10loadConfigEv@Base 4.95.0
 _ZN17ConfigPropertyMap11qt_metacallEN11QMetaObject4CallEiPPv@Base 4.95.0
 _ZN17ConfigPropertyMap11qt_metacastEPKc@Base 4.95.0
 _ZN17ConfigPropertyMap11writeConfigEv@Base 4.95.0
 _ZN17ConfigPropertyMap16staticMetaObjectE@Base 4.95.0
 _ZN17ConfigPropertyMap16writeConfigValueERK7QStringRK8QVariant@Base 4.95.0
 _ZN17ConfigPropertyMapC1EP19KCoreConfigSkeletonP7QObject@Base 4.95.0
 _ZN17ConfigPropertyMapC2EP19KCoreConfigSkeletonP7QObject@Base 4.95.0
 _ZN17ConfigPropertyMapD0Ev@Base 4.95.0
 _ZN17ConfigPropertyMapD1Ev@Base 4.95.0
 _ZN17ConfigPropertyMapD2Ev@Base 4.95.0
 _ZN9QmlObject11qt_metacallEN11QMetaObject4CallEiPPv@Base 4.95.0
 _ZN9QmlObject11qt_metacastEPKc@Base 4.95.0
 _ZN9QmlObject16staticMetaObjectE@Base 4.95.0
 _ZN9QmlObject22completeInitializationERK5QHashI7QString8QVariantE@Base 4.95.0
 _ZN9QmlObject22createObjectFromSourceERK4QUrlRK5QHashI7QString8QVariantE@Base 4.95.0
 _ZN9QmlObject24setInitializationDelayedEb@Base 4.95.0
 _ZN9QmlObject6engineEv@Base 4.95.0
 _ZN9QmlObject8finishedEv@Base 4.95.0
 _ZN9QmlObject9setSourceERK4QUrl@Base 4.95.0
 _ZN9QmlObjectC1EP7QObject@Base 4.95.0
 _ZN9QmlObjectC2EP7QObject@Base 4.95.0
 _ZN9QmlObjectD0Ev@Base 4.95.0
 _ZN9QmlObjectD1Ev@Base 4.95.0
 _ZN9QmlObjectD2Ev@Base 4.95.0
 _ZNK12KDeclarative17declarativeEngineEv@Base 4.95.0
 _ZNK17ConfigPropertyMap10metaObjectEv@Base 4.95.0
 _ZNK9QmlObject10metaObjectEv@Base 4.95.0
 _ZNK9QmlObject10rootObjectEv@Base 4.95.0
 _ZNK9QmlObject13mainComponentEv@Base 4.95.0
 _ZNK9QmlObject23isInitializationDelayedEv@Base 4.95.0
 _ZNK9QmlObject6sourceEv@Base 4.95.0
 _ZTI17ConfigPropertyMap@Base 4.95.0
 _ZTI9QmlObject@Base 4.95.0
 _ZTS17ConfigPropertyMap@Base 4.95.0
 _ZTS9QmlObject@Base 4.95.0
 _ZTV17ConfigPropertyMap@Base 4.95.0
 _ZTV9QmlObject@Base 4.95.0
